; Function Attrs: nounwind uwtable
define internal fastcc void @hostlist_delete_range(ptr noundef captures(none) %0, i32 noundef %1) unnamed_addr #0 {
  %3 = alloca ptr, align 8
  %4 = getelementptr inbounds nuw i8, ptr %0, i64 64
  %5 = load ptr, ptr %4, align 8
  %6 = sext i32 %1 to i64
  %7 = getelementptr inbounds ptr, ptr %5, i64 %6
  %8 = load ptr, ptr %7, align 8
  %9 = getelementptr inbounds nuw i8, ptr %0, i64 52
  %10 = load i32, ptr %9, align 4
  %11 = add nsw i32 %10, -1
  %12 = icmp slt i32 %1, %11
  br i1 %12, label %.lr.ph, label %.._crit_edge_crit_edge

.._crit_edge_crit_edge:                           ; preds = %2
  %.pre19 = sext i32 %11 to i64
  br label %._crit_edge

.lr.ph:                                           ; preds = %2, %.lr.ph
  %indvars.iv = phi i64 [ %indvars.iv.next, %.lr.ph ], [ %6, %2 ]
  %13 = load ptr, ptr %4, align 8
  %indvars.iv.next = add nsw i64 %indvars.iv, 1
  %14 = getelementptr inbounds ptr, ptr %13, i64 %indvars.iv.next
  %15 = load ptr, ptr %14, align 8
  %16 = getelementptr inbounds ptr, ptr %13, i64 %indvars.iv
  store ptr %15, ptr %16, align 8
  %17 = load i32, ptr %9, align 4
  %18 = add nsw i32 %17, -1
  %19 = sext i32 %18 to i64
  %20 = icmp slt i64 %indvars.iv.next, %19
  br i1 %20, label %.lr.ph, label %._crit_edge.loopexit, !llvm.loop !55

._crit_edge.loopexit:                             ; preds = %.lr.ph
  %.pre = load ptr, ptr %4, align 8
  br label %._crit_edge

._crit_edge:                                      ; preds = %.._crit_edge_crit_edge, %._crit_edge.loopexit
  %.pre-phi = phi i64 [ %.pre19, %.._crit_edge_crit_edge ], [ %19, %._crit_edge.loopexit ]
  %21 = phi ptr [ %5, %.._crit_edge_crit_edge ], [ %.pre, %._crit_edge.loopexit ]
  %.lcssa = phi i32 [ %11, %.._crit_edge_crit_edge ], [ %18, %._crit_edge.loopexit ]
  store i32 %.lcssa, ptr %9, align 4
  %22 = getelementptr inbounds ptr, ptr %21, i64 %.pre-phi
  store ptr null, ptr %22, align 8
  %23 = getelementptr inbounds nuw i8, ptr %0, i64 72
  %.026.i = load ptr, ptr %23, align 8
  %.not2427.i = icmp eq ptr %.026.i, null
  br i1 %.not2427.i, label %hostlist_shift_iterators.exit, label %.lr.ph.split.i

.lr.ph.split.i:                                   ; preds = %._crit_edge, %46
  %.028.i = phi ptr [ %.0.i, %46 ], [ %.026.i, %._crit_edge ]
  %24 = getelementptr inbounds nuw i8, ptr %.028.i, i64 16
  %25 = load i32, ptr %24, align 8
  %.not25.i = icmp slt i32 %25, %1
  br i1 %.not25.i, label %46, label %26

26:                                               ; preds = %.lr.ph.split.i
  %27 = add nsw i32 %25, -1
  store i32 %27, ptr %24, align 8
  %28 = icmp sgt i32 %25, 0
  br i1 %28, label %29, label %38

29:                                               ; preds = %26
  %30 = getelementptr inbounds nuw i8, ptr %.028.i, i64 8
  %31 = load ptr, ptr %30, align 8
  %32 = getelementptr inbounds nuw i8, ptr %31, i64 64
  %33 = load ptr, ptr %32, align 8
  %34 = zext nneg i32 %27 to i64
  %35 = getelementptr inbounds nuw ptr, ptr %33, i64 %34
  %36 = load ptr, ptr %35, align 8
  %37 = getelementptr inbounds nuw i8, ptr %.028.i, i64 24
  store ptr %36, ptr %37, align 8
  br label %46

38:                                               ; preds = %26
  store i32 0, ptr %24, align 8
  %39 = getelementptr inbounds nuw i8, ptr %.028.i, i64 8
  %40 = load ptr, ptr %39, align 8
  %41 = getelementptr inbounds nuw i8, ptr %40, i64 64
  %42 = load ptr, ptr %41, align 8
  %43 = load ptr, ptr %42, align 8
  %44 = getelementptr inbounds nuw i8, ptr %.028.i, i64 24
  store ptr %43, ptr %44, align 8
  %45 = getelementptr inbounds nuw i8, ptr %.028.i, i64 32
  store i32 -1, ptr %45, align 8
  br label %46

46:                                               ; preds = %38, %29, %.lr.ph.split.i
  %47 = getelementptr inbounds nuw i8, ptr %.028.i, i64 40
  %.0.i = load ptr, ptr %47, align 8
  %.not24.i = icmp eq ptr %.0.i, null
  br i1 %.not24.i, label %hostlist_shift_iterators.exit, label %.lr.ph.split.i, !llvm.loop !36

hostlist_shift_iterators.exit:                    ; preds = %46, %._crit_edge
  call void @llvm.lifetime.start.p0(i64 8, ptr nonnull %3)
  store ptr %8, ptr %3, align 8
  %48 = icmp eq ptr %8, null
  br i1 %48, label %hostrange_destroy.exit, label %49

49:                                               ; preds = %hostlist_shift_iterators.exit
  tail call void @slurm_xfree(ptr noundef nonnull %8) #22
  call void @slurm_xfree(ptr noundef nonnull %3) #22
  br label %hostrange_destroy.exit

hostrange_destroy.exit:                           ; preds = %hostlist_shift_iterators.exit, %49
  call void @llvm.lifetime.end.p0(i64 8, ptr nonnull %3)
  ret void
}